target datalayout = "e-m:e-p270:32:32-p271:32:32-p272:64:64-i64:64-i128:128-f80:128-n8:16:32:64-S128"
target triple = "x86_64-pc-linux-gnu"

@hf_nan_availability_intervals_bitmap = internal global i32 0, align 4
@hf_nan_attr_further_av_map_id = internal global i32 0, align 4
@hf_nan_attr_further_av_map_op_class = internal global i32 0, align 4
@hf_nan_attr_further_av_map_channel_num = internal global i32 0, align 4
@hf_nan_attr_further_av_map_entry_ctrl = internal global i32 0, align 4
@ett_further_av_map_entry_ctrl = internal global i32 0, align 4
@dissect_attr_further_availability_map.availability_entry_control_fields = internal constant [2 x ptr] [ptr @hf_nan_attr_further_av_map_entry_av_interval_duration, ptr null], align 16

; Function Attrs: null_pointer_is_valid sspstrong uwtable
define internal void @dissect_attr_further_availability_map(ptr noundef %0, ptr noundef %1, i32 noundef %2) #0 {
  %4 = alloca ptr, align 8
  %5 = alloca ptr, align 8
  %6 = alloca i32, align 4
  %7 = alloca i32, align 4
  store ptr %0, ptr %4, align 8
  store ptr %1, ptr %5, align 8
  store i32 %2, ptr %6, align 4
  call void @llvm.lifetime.start.p0(i64 4, ptr %7) #5
  %8 = load i32, ptr %6, align 4
  %9 = add i32 %8, 3
  store i32 %9, ptr %7, align 4
  %10 = load ptr, ptr %4, align 8
  %11 = load i32, ptr @hf_nan_attr_further_av_map_id, align 4
  %12 = load ptr, ptr %5, align 8
  %13 = load i32, ptr %7, align 4
  %14 = call ptr @proto_tree_add_item(ptr noundef %10, i32 noundef %11, ptr noundef %12, i32 noundef %13, i32 noundef 1, i32 noundef 0)
  %15 = load i32, ptr %7, align 4
  %16 = add i32 %15, 1
  store i32 %16, ptr %7, align 4
  %17 = load ptr, ptr %4, align 8
  %18 = load ptr, ptr %5, align 8
  %19 = load i32, ptr %7, align 4
  %20 = load i32, ptr @hf_nan_attr_further_av_map_entry_ctrl, align 4
  %21 = load i32, ptr @ett_further_av_map_entry_ctrl, align 4
  %22 = call ptr @proto_tree_add_bitmask(ptr noundef %17, ptr noundef %18, i32 noundef %19, i32 noundef %20, i32 noundef %21, ptr noundef @dissect_attr_further_availability_map.availability_entry_control_fields, i32 noundef -2147483648)
  %23 = load i32, ptr %7, align 4
  %24 = add i32 %23, 1
  store i32 %24, ptr %7, align 4
  %25 = load ptr, ptr %4, align 8
  %26 = load i32, ptr @hf_nan_attr_further_av_map_op_class, align 4
  %27 = load ptr, ptr %5, align 8
  %28 = load i32, ptr %7, align 4
  %29 = call ptr @proto_tree_add_item(ptr noundef %25, i32 noundef %26, ptr noundef %27, i32 noundef %28, i32 noundef 1, i32 noundef 0)
  %30 = load i32, ptr %7, align 4
  %31 = add i32 %30, 1
  store i32 %31, ptr %7, align 4
  %32 = load ptr, ptr %4, align 8
  %33 = load i32, ptr @hf_nan_attr_further_av_map_channel_num, align 4
  %34 = load ptr, ptr %5, align 8
  %35 = load i32, ptr %7, align 4
  %36 = call ptr @proto_tree_add_item(ptr noundef %32, i32 noundef %33, ptr noundef %34, i32 noundef %35, i32 noundef 1, i32 noundef 0)
  %37 = load i32, ptr %7, align 4
  %38 = add i32 %37, 1
  store i32 %38, ptr %7, align 4
  %39 = load ptr, ptr %4, align 8
  %40 = load i32, ptr @hf_nan_availability_intervals_bitmap, align 4
  %41 = load ptr, ptr %5, align 8
  %42 = load i32, ptr %7, align 4
  %43 = call ptr @proto_tree_add_item(ptr noundef %39, i32 noundef %40, ptr noundef %41, i32 noundef %42, i32 noundef -1, i32 noundef 0)
  call void @llvm.lifetime.end.p0(i64 4, ptr %7) #5
  ret void
}