; Function Attrs: null_pointer_is_valid sspstrong uwtable
define internal fastcc void @dissect_attr_further_availability_map(ptr noundef %0, ptr noundef %1, i32 noundef %2) unnamed_addr #0 {
  %4 = add i32 %2, 3
  %5 = load i32, ptr @hf_nan_attr_further_av_map_id, align 4
  %6 = tail call ptr @proto_tree_add_item(ptr noundef %0, i32 noundef %5, ptr noundef %1, i32 noundef %4, i32 noundef 1, i32 noundef 0)
  %7 = add i32 %2, 4
  %8 = load i32, ptr @hf_nan_attr_further_av_map_entry_ctrl, align 4
  %9 = load i32, ptr @ett_further_av_map_entry_ctrl, align 4
  %10 = tail call ptr @proto_tree_add_bitmask(ptr noundef %0, ptr noundef %1, i32 noundef %7, i32 noundef %8, i32 noundef %9, ptr noundef nonnull @dissect_attr_further_availability_map.availability_entry_control_fields, i32 noundef -2147483648)
  %11 = add i32 %2, 5
  %12 = load i32, ptr @hf_nan_attr_further_av_map_op_class, align 4
  %13 = tail call ptr @proto_tree_add_item(ptr noundef %0, i32 noundef %12, ptr noundef %1, i32 noundef %11, i32 noundef 1, i32 noundef 0)
  %14 = add i32 %2, 6
  %15 = load i32, ptr @hf_nan_attr_further_av_map_channel_num, align 4
  %16 = tail call ptr @proto_tree_add_item(ptr noundef %0, i32 noundef %15, ptr noundef %1, i32 noundef %14, i32 noundef 1, i32 noundef 0)
  %17 = add i32 %2, 7
  %18 = load i32, ptr @hf_nan_availability_intervals_bitmap, align 4
  %19 = tail call ptr @proto_tree_add_item(ptr noundef %0, i32 noundef %18, ptr noundef %1, i32 noundef %17, i32 noundef -1, i32 noundef 0)
  ret void
}